###############################################################################
#
# IAR ELF Linker V8.11.3.13950/W32 for ARM                24/Sep/2017  23:38:32
# Copyright 2007-2017 IAR Systems AB.
#
#    Output file  =  
#        F:\My_Projects\QuadCopter\DK_QuadCopter\DK_QuadCopter\Nuvoton_To_Arduino\Debug\Exe\NuvotonToArduino.out
#    Map file     =  
#        F:\My_Projects\QuadCopter\DK_QuadCopter\DK_QuadCopter\Nuvoton_To_Arduino\Debug\List\NuvotonToArduino.map
#    Command line =  
#        -f C:\Users\ADMINI~1\AppData\Local\Temp\EWB922.tmp
#        (F:\My_Projects\QuadCopter\DK_QuadCopter\DK_QuadCopter\Nuvoton_To_Arduino\Debug\Obj\adc.o
#        F:\My_Projects\QuadCopter\DK_QuadCopter\DK_QuadCopter\Nuvoton_To_Arduino\Debug\Obj\board.o
#        F:\My_Projects\QuadCopter\DK_QuadCopter\DK_QuadCopter\Nuvoton_To_Arduino\Debug\Obj\clk.o
#        F:\My_Projects\QuadCopter\DK_QuadCopter\DK_QuadCopter\Nuvoton_To_Arduino\Debug\Obj\dtostrf.o
#        F:\My_Projects\QuadCopter\DK_QuadCopter\DK_QuadCopter\Nuvoton_To_Arduino\Debug\Obj\gpio.o
#        F:\My_Projects\QuadCopter\DK_QuadCopter\DK_QuadCopter\Nuvoton_To_Arduino\Debug\Obj\HardwareSerial.o
#        F:\My_Projects\QuadCopter\DK_QuadCopter\DK_QuadCopter\Nuvoton_To_Arduino\Debug\Obj\itoa.o
#        F:\My_Projects\QuadCopter\DK_QuadCopter\DK_QuadCopter\Nuvoton_To_Arduino\Debug\Obj\main.o
#        F:\My_Projects\QuadCopter\DK_QuadCopter\DK_QuadCopter\Nuvoton_To_Arduino\Debug\Obj\Pins_arduino.o
#        F:\My_Projects\QuadCopter\DK_QuadCopter\DK_QuadCopter\Nuvoton_To_Arduino\Debug\Obj\Print.o
#        F:\My_Projects\QuadCopter\DK_QuadCopter\DK_QuadCopter\Nuvoton_To_Arduino\Debug\Obj\pwm.o
#        F:\My_Projects\QuadCopter\DK_QuadCopter\DK_QuadCopter\Nuvoton_To_Arduino\Debug\Obj\startup_M051Series.o
#        F:\My_Projects\QuadCopter\DK_QuadCopter\DK_QuadCopter\Nuvoton_To_Arduino\Debug\Obj\Stream.o
#        F:\My_Projects\QuadCopter\DK_QuadCopter\DK_QuadCopter\Nuvoton_To_Arduino\Debug\Obj\sys.o
#        F:\My_Projects\QuadCopter\DK_QuadCopter\DK_QuadCopter\Nuvoton_To_Arduino\Debug\Obj\system_M051Series.o
#        F:\My_Projects\QuadCopter\DK_QuadCopter\DK_QuadCopter\Nuvoton_To_Arduino\Debug\Obj\uart.o
#        F:\My_Projects\QuadCopter\DK_QuadCopter\DK_QuadCopter\Nuvoton_To_Arduino\Debug\Obj\WInterrupts.o
#        F:\My_Projects\QuadCopter\DK_QuadCopter\DK_QuadCopter\Nuvoton_To_Arduino\Debug\Obj\wiring.o
#        F:\My_Projects\QuadCopter\DK_QuadCopter\DK_QuadCopter\Nuvoton_To_Arduino\Debug\Obj\wiring_analog.o
#        F:\My_Projects\QuadCopter\DK_QuadCopter\DK_QuadCopter\Nuvoton_To_Arduino\Debug\Obj\wiring_digital.o
#        F:\My_Projects\QuadCopter\DK_QuadCopter\DK_QuadCopter\Nuvoton_To_Arduino\Debug\Obj\WMath.o
#        F:\My_Projects\QuadCopter\DK_QuadCopter\DK_QuadCopter\Nuvoton_To_Arduino\Debug\Obj\WString.o
#        -o
#        F:\My_Projects\QuadCopter\DK_QuadCopter\DK_QuadCopter\Nuvoton_To_Arduino\Debug\Exe\NuvotonToArduino.out
#        --redirect _Printf=_PrintfFullNoMb --redirect _Scanf=_ScanfFullNoMb
#        --map
#        F:\My_Projects\QuadCopter\DK_QuadCopter\DK_QuadCopter\Nuvoton_To_Arduino\Debug\List\NuvotonToArduino.map
#        --config "C:\Program Files (x86)\IAR Systems\Embedded Workbench
#        8.0\arm\config\linker\Nuvoton\M0516.icf" --semihosting --entry
#        __iar_program_start --vfe --text_out locale)
#
###############################################################################

*******************************************************************************
*** RUNTIME MODEL ATTRIBUTES
***

CppFlavor                     = *
__CPP_Exceptions              = Disabled
__CPP_Language                = C++14
__Heap_Handler                = DLMalloc
__SystemLibrary               = DLib
__dlib_dynamic_initialization = normal
__dlib_version                = 6


*******************************************************************************
*** HEAP SELECTION
***

The advanced heap was selected because the application calls memory
allocation functions outside of system library functions, and there
are calls to deallocation functions in the application.


*******************************************************************************
*** PLACEMENT SUMMARY
***

"A0":  place at 0x00000000 { ro section .intvec };
"P1":  place in [from 0x00000000 to 0x0000ffff] { ro };
define block CSTACK with size = 1K, alignment = 8 { };
define block HEAP with size = 1K, alignment = 8 { };
"P2":  place in [from 0x20000000 to 0x20000fff] {
          rw, block CSTACK, block HEAP };
initialize by copy { rw };

  Section                Kind        Address   Size  Object
  -------                ----        -------   ----  ------
"A0":                                          0xc0
  .intvec                ro code  0x00000000   0xc0  startup_M051Series.o [1]
                                - 0x000000c0   0xc0

"P1":                                         0xeda
  .text                  ro code  0x000000c0  0x3d0  clk.o [1]
  .text                  ro code  0x00000490   0xae  I32DivModFast.o [6]
  .rodata                const    0x0000053e    0x1  unwind_debug.o [7]
  .text                  ro code  0x00000540   0xde  system_M051Series.o [1]
  .text                  ro code  0x00000620    0x2  IntDivZer.o [6]
  .text                  ro code  0x00000624  0x1b8  board.o [1]
  .text                  ro code  0x000007dc  0x19a  HardwareSerial.o [1]
  .text                  ro code  0x00000976    0xc  HardwareSerial.o [1]
  .text                  ro code  0x00000984   0x6c  Pins_arduino.o [1]
  .text                  ro code  0x000009f0  0x138  uart.o [1]
  .text                  ro code  0x00000b28   0x14  HardwareSerial.o [1]
  .text                  ro code  0x00000b3c   0x34  ABImemcpy.o [6]
  .text                  ro code  0x00000b70    0xc  HardwareSerial.o [1]
  .text                  ro code  0x00000b7c    0x6  HardwareSerial.o [1]
  .text                  ro code  0x00000b84  0x110  WInterrupts.o [1]
  .text                  ro code  0x00000c94   0x64  wiring_digital.o [1]
  .text                  ro code  0x00000cf8   0x2e  gpio.o [1]
  .text                  ro code  0x00000d28   0x50  main.o [1]
  .text                  ro code  0x00000d78   0x28  HardwareSerial.o [1]
  .text                  ro code  0x00000da0   0x40  startup_M051Series.o [1]
  .text                  ro code  0x00000de0   0x40  zero_init3.o [6]
  .text                  ro code  0x00000e20   0x30  copy_init3.o [6]
  .text                  ro code  0x00000e50   0x28  data_init.o [6]
  .iar.init_table        const    0x00000e78   0x28  - Linker created -
  .rodata                const    0x00000ea0   0x20  HardwareSerial.o [1]
  .rodata                const    0x00000ec0   0x20  system_M051Series.o [1]
  .text                  ro code  0x00000ee0   0x20  cmain_call_ctors.o [6]
  .text                  ro code  0x00000f00   0x18  cppinit.o [3]
  .text                  ro code  0x00000f18   0x1a  cmain.o [6]
  .text                  ro code  0x00000f32    0x4  low_level_init.o [3]
  .text                  ro code  0x00000f36    0x8  exit.o [3]
  .text                  ro code  0x00000f40    0xa  cexit.o [6]
  .text                  ro code  0x00000f4c   0x14  exit.o [7]
  .rodata                const    0x00000f60   0x10  uart.o [1]
  .text                  ro code  0x00000f70    0xc  cstartup_M.o [6]
  Initializer bytes      const    0x00000f7c    0xc  <for P2-1>
  .rodata                const    0x00000f88    0x4  clk.o [1]
  .rodata                const    0x00000f8c    0x4  system_M051Series.o [1]
  .rodata                const    0x00000f90    0x4  uart.o [1]
  SHT$$PREINIT_ARRAY              0x00000f94    0x0  <Block>
  SHT$$INIT_ARRAY                 0x00000f94    0x4  <Block>
    .init_array          const    0x00000f94    0x4  HardwareSerial.o [1]
  __iar_tls$$INIT_ARRAY           0x00000f98    0x0  <Block>
  .text                  ro code  0x00000f98    0x2  startup_M051Series.o [1]
  .rodata                const    0x00000f9a    0x0  zero_init3.o [6]
  .rodata                const    0x00000f9a    0x0  copy_init3.o [6]
                                - 0x00000f9a  0xeda

"P2", part 1 of 3:                              0xc
  P2-1                            0x20000000    0xc  <Init block>
    .data                inited   0x20000000    0x4  system_M051Series.o [1]
    .data                inited   0x20000004    0x4  system_M051Series.o [1]
    .data                inited   0x20000008    0x4  system_M051Series.o [1]
                                - 0x2000000c    0xc

"P2", part 2 of 3:                            0x128
  .bss                   zero     0x2000000c   0x28  HardwareSerial.o [1]
  .bss                   zero     0x20000034   0x28  HardwareSerial.o [1]
  .bss                   zero     0x2000005c   0x20  WInterrupts.o [1]
  .bss                   zero     0x2000007c   0x20  WInterrupts.o [1]
  .bss                   zero     0x2000009c   0x20  WInterrupts.o [1]
  .bss                   zero     0x200000bc   0x20  WInterrupts.o [1]
  .bss                   zero     0x200000dc   0x20  WInterrupts.o [1]
  .bss                   zero     0x200000fc   0x18  HardwareSerial.o [1]
  .bss                   zero     0x20000114   0x18  HardwareSerial.o [1]
  .bss                   zero     0x2000012c    0x4  board.o [1]
  .bss                   zero     0x20000130    0x1  board.o [1]
                                - 0x20000131  0x125

"P2", part 3 of 3:                            0x400
  CSTACK                          0x20000138  0x400  <Block>
    CSTACK               uninit   0x20000138  0x400  <Block tail>
                                - 0x20000538  0x400


*******************************************************************************
*** INIT TABLE
***

          Address     Size
          -------     ----
Zero (__iar_zero_init3)
    1 destination range, total size 0x125:
          0x2000000c  0x125

Copy (__iar_copy_init3)
    1 source range, total size 0xc:
          0x00000f7c    0xc
    1 destination range, total size 0xc:
          0x20000000    0xc

Extra (__iar_cstart_call_ctors)



*******************************************************************************
*** MODULE SUMMARY
***

    Module                ro code  ro data  rw data
    ------                -------  -------  -------
F:\My_Projects\QuadCopter\DK_QuadCopter\DK_QuadCopter\Nuvoton_To_Arduino\Debug\Obj: [1]
    HardwareSerial.o          500       36      128
    Pins_arduino.o            108
    WInterrupts.o             272               160
    board.o                   440                 5
    clk.o                     976        4
    gpio.o                     46
    main.o                     80
    startup_M051Series.o      258
    system_M051Series.o       222       48       12
    uart.o                    312       20
    wiring_digital.o          100
    -----------------------------------------------
    Total:                  3 314      108      305

command line: [2]
    -----------------------------------------------
    Total:

dl6M_tln.a: [3]
    cppinit.o                  24
    exit.o                      8
    low_level_init.o            4
    -----------------------------------------------
    Total:                     36

dlpp6M_tl_nc.a: [4]
    -----------------------------------------------
    Total:

m6M_tl.a: [5]
    -----------------------------------------------
    Total:

rt6M_tl.a: [6]
    ABImemcpy.o                52
    I32DivModFast.o           174
    IntDivZer.o                 2
    cexit.o                    10
    cmain.o                    26
    cmain_call_ctors.o         32
    copy_init3.o               48
    cstartup_M.o               12
    data_init.o                40
    zero_init3.o               64
    -----------------------------------------------
    Total:                    460

shb_l.a: [7]
    exit.o                     20
    unwind_debug.o                       1
    -----------------------------------------------
    Total:                     20        1

    Gaps                       15
    Linker created                      40    1 024
---------------------------------------------------
    Grand Total:            3 845      149    1 329


*******************************************************************************
*** ENTRY LIST
***

Entry                      Address   Size  Type      Object
-----                      -------   ----  ----      ------
.iar.init_table$$Base   0x00000e78          --   Gb  - Linker created -
.iar.init_table$$Limit  0x00000ea0          --   Gb  - Linker created -
?main                   0x00000f19         Code  Gb  cmain.o [6]
Ardu_PinConfigAsUART(UART_T *)
                        0x00000985   0x5c  Code  Gb  Pins_arduino.o [1]
CLK_EnableModuleClock   0x00000287   0x26  Code  Gb  clk.o [1]
CLK_EnablePLL           0x000002d1  0x162  Code  Gb  clk.o [1]
CLK_EnableXtalRC        0x0000027b    0xc  Code  Gb  clk.o [1]
CLK_SetCoreClock        0x0000011d   0x92  Code  Gb  clk.o [1]
CLK_SetHCLK             0x000001af   0x5e  Code  Gb  clk.o [1]
CLK_SetModuleClock      0x0000020d   0x6e  Code  Gb  clk.o [1]
CLK_WaitClockReady      0x00000433   0x20  Code  Gb  clk.o [1]
CSTACK$$Base            0x20000138          --   Gb  - Linker created -
CSTACK$$Limit           0x20000538          --   Gb  - Linker created -
CyclesPerUs             0x20000004    0x4  Data  Gb  system_M051Series.o [1]
Enable_All_IPs()        0x00000711   0x4e  Code  Gb  board.o [1]
GPIOP0P1_IRQHandler     0x00000b85   0x5e  Code  Gb  WInterrupts.o [1]
GPIOP2P3P4_IRQHandler   0x00000be9   0x86  Code  Gb  WInterrupts.o [1]
GPIO_SetMode            0x00000cf9   0x2e  Code  Gb  gpio.o [1]
HardwareSerial::HardwareSerial(UART_T *, unsigned int, unsigned int, unsigned int, IRQn, ring_buffer *)
                        0x00000887   0x30  Code  Gb  HardwareSerial.o [1]
HardwareSerial::available()
                        0x00000951   0x10  Code  Gb  HardwareSerial.o [1]
HardwareSerial::begin(unsigned int)
                        0x000008e9   0x3e  Code  Gb  HardwareSerial.o [1]
HardwareSerial::read()  0x00000927   0x2a  Code  Gb  HardwareSerial.o [1]
HardwareSerial::write(unsigned char)
                        0x00000961   0x16  Code  Gb  HardwareSerial.o [1]
PllClock                0x20000008    0x4  Data  Gb  system_M051Series.o [1]
Print::Print()          0x00000b7d    0x6  Code  Gb  HardwareSerial.o [1]
Print::Print() [subobject]
                        0x00000b71    0xc  Code  Gb  HardwareSerial.o [1]
Region$$Table$$Base     0x00000e78          --   Gb  - Linker created -
Region$$Table$$Limit    0x00000ea0          --   Gb  - Linker created -
SHT$$INIT_ARRAY$$Base   0x00000f94          --   Gb  - Linker created -
SHT$$INIT_ARRAY$$Limit  0x00000f98          --   Gb  - Linker created -
SHT$$PREINIT_ARRAY$$Base
                        0x00000f94          --   Gb  - Linker created -
SHT$$PREINIT_ARRAY$$Limit
                        0x00000f94          --   Gb  - Linker created -
Serial                  0x2000000c   0x28  Data  Gb  HardwareSerial.o [1]
Serial1                 0x20000034   0x28  Data  Gb  HardwareSerial.o [1]
Stream::Stream()        0x00000b29   0x14  Code  Gb  HardwareSerial.o [1]
Stream::Stream() [subobject]
                        0x00000977    0xc  Code  Gb  HardwareSerial.o [1]
SysTick_Handler         0x00000705    0xc  Code  Gb  board.o [1]
SystemCoreClock         0x20000000    0x4  Data  Gb  system_M051Series.o [1]
SystemCoreClockUpdate   0x0000059d   0x4e  Code  Gb  system_M051Series.o [1]
SystemInit              0x0000061d    0x2  Code  Gb  system_M051Series.o [1]
UART0_IRQHandler        0x00000823   0x32  Code  Gb  HardwareSerial.o [1]
UART1_IRQHandler        0x00000855   0x32  Code  Gb  HardwareSerial.o [1]
UART_Open               0x00000a4d   0xba  Code  Gb  uart.o [1]
Virtual function table for HardwareSerial
                        0x00000ea0   0x20  Data  Gb  HardwareSerial.o [1]
[local to HardwareSerial_cpp]::NVIC_EnableIRQ(IRQn)
                        0x00000815    0xe  Code  Lc  HardwareSerial.o [1]
[local to board_cpp]::NVIC_SetPriority(IRQn, unsigned int)
                        0x00000625   0x84  Code  Lc  board.o [1]
[local to board_cpp]::SYS_LockReg()
                        0x000006dd    0x8  Code  Lc  board.o [1]
[local to board_cpp]::SYS_UnlockReg()
                        0x000006e5   0x20  Code  Lc  board.o [1]
[local to board_cpp]::SysTick_Config(unsigned int)
                        0x000006a9   0x34  Code  Lc  board.o [1]
[local to clk_c]::CLK_GetPLLClockFreq()
                        0x000000c1   0x5c  Code  Lc  clk.o [1]
[local to system_M051Series_c]::CLK_GetPLLClockFreq()
                        0x00000541   0x5c  Code  Lc  system_M051Series.o [1]
[local to uart_c]::CLK_GetPLLClockFreq()
                        0x000009f1   0x5c  Code  Lc  uart.o [1]
__aeabi_idiv0           0x00000621         Code  Gb  IntDivZer.o [6]
__aeabi_memcpy4         0x00000b3d         Code  Wk  ABImemcpy.o [6]
__aeabi_uidiv           0x00000491         Code  Gb  I32DivModFast.o [6]
__aeabi_uidivmod        0x00000491         Code  Gb  I32DivModFast.o [6]
__call_ctors            0x00000f01   0x18  Code  Gb  cppinit.o [3]
__cmain                 0x00000f19         Code  Gb  cmain.o [6]
__exit                  0x00000f4d   0x14  Code  Gb  exit.o [7]
__iar_copy_init3        0x00000e21   0x30  Code  Gb  copy_init3.o [6]
__iar_cstart_call_ctors
                        0x00000ee1   0x20  Code  Gb  cmain_call_ctors.o [6]
__iar_data_init3        0x00000e51   0x28  Code  Gb  data_init.o [6]
__iar_debug_exceptions  0x0000053e    0x1  Data  Gb  unwind_debug.o [7]
__iar_program_start     0x00000f71         Code  Gb  cstartup_M.o [6]
__iar_systems$$module {Abs}
                        0x00000001         Data  Gb  command line/config [2]
__iar_tls$$INIT_ARRAY$$Base
                        0x00000f98          --   Gb  - Linker created -
__iar_tls$$INIT_ARRAY$$Limit
                        0x00000f98          --   Gb  - Linker created -
__iar_zero_init3        0x00000de1   0x40  Code  Gb  zero_init3.o [6]
__low_level_init        0x00000f33    0x4  Code  Gb  low_level_init.o [3]
__sti__routine          0x000007dd   0x38  Code  Lc  HardwareSerial.o [1]
__vector_table          0x00000000         Data  Gb  startup_M051Series.o [1]
_call_main              0x00000f25         Code  Gb  cmain.o [6]
_dwTickCount            0x2000012c    0x4  Data  Lc  board.o [1]
_exit                   0x00000f41         Code  Gb  cexit.o [6]
_main                   0x00000f2f         Code  Gb  cmain.o [6]
callbacksP0             0x2000005c   0x20  Data  Lc  WInterrupts.o [1]
callbacksP1             0x2000007c   0x20  Data  Lc  WInterrupts.o [1]
callbacksP2             0x2000009c   0x20  Data  Lc  WInterrupts.o [1]
callbacksP3             0x200000bc   0x20  Data  Lc  WInterrupts.o [1]
callbacksP4             0x200000dc   0x20  Data  Lc  WInterrupts.o [1]
digitalWrite            0x00000cd3   0x1e  Code  Gb  wiring_digital.o [1]
exit                    0x00000f37    0x8  Code  Gb  exit.o [3]
gau32ClkSrcTbl          0x00000ec0   0x20  Data  Lc  system_M051Series.o [1]
init                    0x0000075f   0x40  Code  Gb  board.o [1]
init_flag               0x20000130    0x1  Data  Lc  board.o [1]
main                    0x00000d29   0x4a  Code  Gb  main.o [1]
pinMode                 0x00000c95   0x3e  Code  Gb  wiring_digital.o [1]
rx_buffer               0x200000fc   0x18  Data  Gb  HardwareSerial.o [1]
rx_buffer1              0x20000114   0x18  Data  Gb  HardwareSerial.o [1]
serialEventRun()        0x00000d79   0x28  Code  Wk  HardwareSerial.o [1]


[1] = F:\My_Projects\QuadCopter\DK_QuadCopter\DK_QuadCopter\Nuvoton_To_Arduino\Debug\Obj
[2] = command line
[3] = dl6M_tln.a
[4] = dlpp6M_tl_nc.a
[5] = m6M_tl.a
[6] = rt6M_tl.a
[7] = shb_l.a

  3 845 bytes of readonly  code memory
    149 bytes of readonly  data memory
  1 329 bytes of readwrite data memory

Errors: none
Warnings: none
